((dp0
S'AF'
p1
(lp2
F1.0
aF0.0
aF0.0
aF0.0
aF0.0
aF0.0
asS'NA'
p3
(lp4
F0.0
aF0.0
aF0.0
aF1.0
aF0.0
aF0.0
asS'OC'
p5
(lp6
F0.0
aF0.0
aF0.0
aF0.0
aF1.0
aF0.0
asS'AS'
p7
(lp8
F0.0
aF1.0
aF0.0
aF0.0
aF0.0
aF0.0
asS'EU'
p9
(lp10
F0.0
aF0.0
aF1.0
aF0.0
aF0.0
aF0.0
asS'SA'
p11
(lp12
F0.0
aF0.0
aF0.0
aF0.0
aF0.0
aF1.0
as(dp13
S'Arts'
p14
(lp15
I0
aI1
aI0
aI0
aI0
aI0
aI0
aI0
aI0
aI0
aI0
aI0
aI0
aI0
aI0
asS'Manufacturing'
p16
(lp17
I0
aI0
aI0
aI0
aI0
aI0
aI0
aI0
aI0
aI1
aI0
aI0
aI0
aI0
aI0
asS'Transportation'
p18
(lp19
I0
aI0
aI0
aI0
aI0
aI0
aI0
aI0
aI0
aI0
aI0
aI0
aI0
aI1
aI0
asS'Entertainment'
p20
(lp21
I0
aI0
aI0
aI0
aI0
aI1
aI0
aI0
aI0
aI0
aI0
aI0
aI0
aI0
aI0
asS'Food'
p22
(lp23
I0
aI0
aI0
aI0
aI0
aI0
aI1
aI0
aI0
aI0
aI0
aI0
aI0
aI0
aI0
asS'Agriculture'
p24
(lp25
I1
aI0
aI0
aI0
aI0
aI0
aI0
aI0
aI0
aI0
aI0
aI0
aI0
aI0
aI0
asS'Housing'
p26
(lp27
I0
aI0
aI0
aI0
aI0
aI0
aI0
aI0
aI1
aI0
aI0
aI0
aI0
aI0
aI0
asS'Personal Use'
p28
(lp29
I0
aI0
aI0
aI0
aI0
aI0
aI0
aI0
aI0
aI0
aI1
aI0
aI0
aI0
aI0
asS'Construction'
p30
(lp31
I0
aI0
aI0
aI1
aI0
aI0
aI0
aI0
aI0
aI0
aI0
aI0
aI0
aI0
aI0
asS'Health'
p32
(lp33
I0
aI0
aI0
aI0
aI0
aI0
aI0
aI1
aI0
aI0
aI0
aI0
aI0
aI0
aI0
asS'Wholesale'
p34
(lp35
I0
aI0
aI0
aI0
aI0
aI0
aI0
aI0
aI0
aI0
aI0
aI0
aI0
aI0
aI1
asS'Services'
p36
(lp37
I0
aI0
aI0
aI0
aI0
aI0
aI0
aI0
aI0
aI0
aI0
aI0
aI1
aI0
aI0
asS'Retail'
p38
(lp39
I0
aI0
aI0
aI0
aI0
aI0
aI0
aI0
aI0
aI0
aI0
aI1
aI0
aI0
aI0
asS'Education'
p40
(lp41
I0
aI0
aI0
aI0
aI1
aI0
aI0
aI0
aI0
aI0
aI0
aI0
aI0
aI0
aI0
asS'Clothing'
p42
(lp43
I0
aI0
aI1
aI0
aI0
aI0
aI0
aI0
aI0
aI0
aI0
aI0
aI0
aI0
aI0
astp44
.