((dp0
VTurkey
p1
I65
sVSuriname
p2
I66
sVChile
p3
I47
sVNepal
p4
I53
sVKyrgyzstan
p5
I32
sVCambodia
p6
I3
sVHaiti
p7
I59
sVRwanda
p8
I17
sVTanzania
p9
I43
sVSomalia
p10
I57
sVPeru
p11
I10
sVPalestine
p12
I22
sVBelize
p13
I61
sVNigeria
p14
I63
sVBolivia
p15
I13
sVCameroon
p16
I31
sVBurkina Faso
p17
I50
sVEcuador
p18
I28
sVBenin
p19
I15
sVGhana
p20
I23
sVIsrael
p21
I60
sVEl Salvador
p22
I16
sVThailand
p23
I52
sVZambia
p24
I41
sVCote D'Ivoire
p25
I64
sVTogo
p26
I39
sVGuatemala
p27
I21
sVZimbabwe
p28
I54
sVJordan
p29
I36
sVArmenia
p30
I29
sVTimor-Leste
p31
I49
sVDominican Republic
p32
I45
sVIraq
p33
I30
sVSierra Leone
p34
I4
sVMongolia
p35
I40
sVUkraine
p36
I48
sVLiberia
p37
I18
sVThe Democratic Republic of the Congo
p38
I20
sVGeorgia
p39
I2
sVUganda
p40
I5
sVPhilippines
p41
I7
sVIndonesia
p42
I51
sVCosta Rica
p43
I46
sVUnited States
p44
I34
sVBurundi
p45
I42
sVVietnam
p46
I14
sVSouth Sudan
p47
I6
sVMali
p48
I33
sVSamoa
p49
I19
sVYemen
p50
I25
sVIndia
p51
I56
sVPakistan
p52
I8
sVAlbania
p53
I37
sVHonduras
p54
I12
sVMexico
p55
I0
sVTajikistan
p56
I44
sVKosovo
p57
I55
sVLebanon
p58
I38
sVAzerbaijan
p59
I26
sVSouth Africa
p60
I58
sVSenegal
p61
I35
sVCongo
p62
I62
sVMozambique
p63
I24
sVColombia
p64
I1
sVParaguay
p65
I11
sVKenya
p66
I9
sVNicaragua
p67
I27
s(dp68
VArts
p69
I8
sVEducation
p70
I9
sVTransportation
p71
I11
sVEntertainment
p72
I14
sVFood
p73
I4
sVWholesale
p74
I3
sVHousing
p75
I6
sVManufacturing
p76
I12
sVPersonal Use
p77
I13
sVConstruction
p78
I7
sVHealth
p79
I10
sVServices
p80
I1
sVRetail
p81
I0
sVAgriculture
p82
I2
sVClothing
p83
I5
s(dp84
VM
p85
I0
sVF
p86
I1
s(dp87
VEducation provider
p88
I65
sVRenewable Energy Products
p89
I78
sVBookbinding
p90
I94
sVAnimal Sales
p91
I82
sVEmbroidery
p92
I50
sVVehicle
p93
I79
sVSporting Good Sales
p94
I144
sVSecretarial Services
p95
I105
sVAir Conditioning
p96
I129
sVCarpentry
p97
I25
sVKnitting
p98
I101
sVDental
p99
I58
sVPigs
p100
I17
sVWedding Expenses
p101
I47
sVPlastics Sales
p102
I97
sVServices
p103
I13
sVTourism
p104
I136
sVReligious Articles
p105
I138
sVBookstore
p106
I118
sVWater Distribution
p107
I52
sVRestaurant
p108
I33
sVWholesale
p109
I3
sVBakery
p110
I32
sVMusical Instruments
p111
I143
sVCrafts
p112
I87
sVMedical Clinic
p113
I139
sVCereals
p114
I42
sVPaper Sales
p115
I111
sVPersonal Products Sales
p116
I35
sVCobbler
p117
I90
sVDairy
p118
I44
sVPhone Use Sales
p119
I134
sVAgriculture
p120
I2
sVGrocery Store
p121
I26
sVElectronics Sales
p122
I99
sVArts
p123
I92
sVMilk Sales
p124
I77
sVFuneral Expenses
p125
I146
sVTimber Sales
p126
I81
sVEntertainment
p127
I100
sVTailoring
p128
I27
sVCosmetics Sales
p129
I31
sVPersonal Medical Expenses
p130
I104
sVPharmacy
p131
I23
sVFarm Supplies
p132
I69
sVFuel/Firewood
p133
I40
sVSpare Parts
p134
I62
sVOffice Supplies
p135
I117
sVPerfumes
p136
I98
sVGoods Distribution
p137
I124
sVBeauty Salon
p138
I39
sVUtilities
p139
I135
sVPub
p140
I86
sVFruits & Vegetables
p141
I37
sVConstruction
p142
I29
sVRickshaw
p143
I60
sVGeneral Store
p144
I8
sVTraveling Sales
p145
I113
sVPersonal Housing Expenses
p146
I19
sVVeterinary Sales
p147
I128
sVInternet Cafe
p148
I48
sVMusic Discs & Tapes
p149
I141
sVElectrician
p150
I121
sVHome Energy
p151
I106
sVRecycling
p152
I72
sVLand Rental
p153
I137
sVMetal Shop
p154
I67
sVSouvenir Sales
p155
I127
sVCafe
p156
I102
sVDecorations Sales
p157
I110
sVPhotography
p158
I66
sVBicycle Repair
p159
I120
sVElectronics Repair
p160
I71
sVSewing
p161
I1
sVWeaving
p162
I18
sVMachine Shop
p163
I140
sVPrimary/secondary school costs
p164
I20
sVPhone Accessories
p165
I54
sVHealth
p166
I38
sVNatural Medicines
p167
I108
sVFarming
p168
I15
sVJewelry
p169
I93
sVFood Stall
p170
I9
sVProperty
p171
I11
sVTransportation
p172
I56
sVMotorcycle Transport
p173
I24
sVHotel
p174
I45
sVCement
p175
I85
sVQuarrying
p176
I115
sVButcher Shop
p177
I73
sVFurniture Making
p178
I61
sVFlowers
p179
I84
sVRecycled Materials
p180
I76
sVMachinery Rental
p181
I126
sVCloth & Dressmaking Supplies
p182
I68
sVClothing Sales
p183
I7
sVLiquor Store / Off-License
p184
I59
sVBalut-Making
p185
I133
sVWaste Management
p186
I116
sVFish Selling
p187
I22
sVFood Production/Sales
p188
I12
sVBlacksmith
p189
I46
sVFilm
p190
I145
sVRetail
p191
I0
sVTaxi
p192
I43
sVBarber Shop
p193
I114
sVBricks
p194
I88
sVElectrical Goods
p195
I96
sVCharcoal Sales
p196
I6
sVUsed Shoes
p197
I103
sVHigher education costs
p198
I34
sVParty Supplies
p199
I142
sVConsumer Goods
p200
I64
sVHome Appliances
p201
I89
sVSoft Drinks
p202
I4
sVCheese Making
p203
I91
sVHardware
p204
I70
sVLaundry
p205
I125
sVMusical Performance
p206
I49
sVFood
p207
I10
sVPhone Repair
p208
I130
sVCatering
p209
I109
sVMovie Tapes & DVDs
p210
I112
sVManufacturing
p211
I28
sVHome Products Sales
p212
I80
sVFood Market
p213
I21
sVPoultry
p214
I5
sVUpholstery
p215
I122
sVComputers
p216
I95
sVPrinting
p217
I119
sVGames
p218
I131
sVChild Care
p219
I132
sVCall Center
p220
I123
sVPersonal Purchases
p221
I41
sVConstruction Supplies
p222
I16
sVMotorcycle Repair
p223
I14
sVLivestock
p224
I36
sVAuto Repair
p225
I53
sVBicycle Sales
p226
I107
sVMobile Phones
p227
I75
sVUsed Clothing
p228
I30
sVFishing
p229
I55
sVCattle
p230
I74
sVVehicle Repairs
p231
I83
sVShoe Sales
p232
I51
sVClothing
p233
I63
sVTextiles
p234
I57
stp235
.